; Function Attrs: nounwind uwtable
define dso_local ptr @activeDefragLuaScript(ptr noundef %0) #0 {
  %2 = tail call i32 @je_get_defrag_hint(ptr noundef %0) #10
  %.not.i = icmp eq i32 %2, 0
  br i1 %.not.i, label %3, label %6

3:                                                ; preds = %1
  %4 = load i64, ptr getelementptr inbounds nuw (i8, ptr @server, i64 2592), align 8, !tbaa !5
  %5 = add nsw i64 %4, 1
  store i64 %5, ptr getelementptr inbounds nuw (i8, ptr @server, i64 2592), align 8, !tbaa !5
  br label %activeDefragAlloc.exit

6:                                                ; preds = %1
  %7 = tail call i64 @je_malloc_usable_size(ptr noundef %0) #10
  %8 = tail call noalias ptr @zmalloc_no_tcache(i64 noundef %7) #10
  tail call void @llvm.memcpy.p0.p0.i64(ptr align 1 %8, ptr align 1 %0, i64 %7, i1 false)
  tail call void @zfree_no_tcache(ptr noundef %0) #10
  %9 = load i64, ptr getelementptr inbounds nuw (i8, ptr @server, i64 2584), align 8, !tbaa !38
  %10 = add nsw i64 %9, 1
  store i64 %10, ptr getelementptr inbounds nuw (i8, ptr @server, i64 2584), align 8, !tbaa !38
  br label %activeDefragAlloc.exit

activeDefragAlloc.exit:                           ; preds = %3, %6
  %.0.i = phi ptr [ %8, %6 ], [ null, %3 ]
  %.not = icmp eq ptr %.0.i, null
  %spec.select = select i1 %.not, ptr %0, ptr %.0.i
  %11 = getelementptr inbounds nuw i8, ptr %spec.select, i64 8
  %12 = load ptr, ptr %11, align 8, !tbaa !42
  %13 = tail call ptr @activeDefragStringObEx(ptr noundef %12, i32 noundef 1)
  %.not9 = icmp eq ptr %13, null
  br i1 %.not9, label %15, label %14

14:                                               ; preds = %activeDefragAlloc.exit
  store ptr %13, ptr %11, align 8, !tbaa !42
  br label %15

15:                                               ; preds = %14, %activeDefragAlloc.exit
  ret ptr %.0.i
}